target datalayout = "e-m:e-p270:32:32-p271:32:32-p272:64:64-i64:64-i128:128-f80:128-n8:16:32:64-S128"
target triple = "x86_64-pc-linux-gnu"

%struct.ident_t = type { i32, i32, i32, i32, ptr }
%"class.ncnn::Mat" = type { ptr, ptr, i64, i32, ptr, i32, i32, i32, i32, i32, i64 }

@1 = private unnamed_addr constant %struct.ident_t { i32 0, i32 514, i32 0, i32 22, ptr @0 }, align 8

; Function Attrs: noinline noreturn nounwind uwtable
define linkonce_odr hidden void @__clang_call_terminate(ptr noundef %0) #6 comdat {
  %2 = call ptr @__cxa_begin_catch(ptr %0) #4
  call void @_ZSt9terminatev() #21
  unreachable
}

; Function Attrs: alwaysinline mustprogress nounwind uwtable
define linkonce_odr hidden noundef ptr @_ZN4ncnn3MatcvPT_IKfEEv(ptr noundef nonnull align 8 dereferenceable(72) %0) #7 comdat align 2 {
  %2 = alloca ptr, align 8
  store ptr %0, ptr %2, align 8, !tbaa !4
  %3 = load ptr, ptr %2, align 8
  %4 = getelementptr inbounds nuw %"class.ncnn::Mat", ptr %3, i32 0, i32 0
  %5 = load ptr, ptr %4, align 8, !tbaa !54
  ret ptr %5
}

; Function Attrs: alwaysinline mustprogress nounwind uwtable
define linkonce_odr hidden noundef ptr @_ZNK4ncnn3Mat3rowEi(ptr noundef nonnull align 8 dereferenceable(72) %0, i32 noundef %1) #7 comdat align 2 {
  %3 = alloca ptr, align 8
  %4 = alloca i32, align 4
  store ptr %0, ptr %3, align 8, !tbaa !4
  store i32 %1, ptr %4, align 4, !tbaa !9
  %5 = load ptr, ptr %3, align 8
  %6 = getelementptr inbounds nuw %"class.ncnn::Mat", ptr %5, i32 0, i32 0
  %7 = load ptr, ptr %6, align 8, !tbaa !54
  %8 = getelementptr inbounds nuw %"class.ncnn::Mat", ptr %5, i32 0, i32 6
  %9 = load i32, ptr %8, align 4, !tbaa !49
  %10 = sext i32 %9 to i64
  %11 = load i32, ptr %4, align 4, !tbaa !9
  %12 = sext i32 %11 to i64
  %13 = mul i64 %10, %12
  %14 = getelementptr inbounds nuw %"class.ncnn::Mat", ptr %5, i32 0, i32 2
  %15 = load i64, ptr %14, align 8, !tbaa !56
  %16 = mul i64 %13, %15
  %17 = getelementptr inbounds nuw i8, ptr %7, i64 %16
  ret ptr %17
}

; Function Attrs: alwaysinline norecurse nounwind uwtable
define internal void @_ZN4ncnnL9lstm_int8ERKNS_3MatES2_RS0_iS2_S2_S2_S2_S3_S3_RKNS_6OptionE.omp_outlined.5(ptr noalias noundef %0, ptr noalias noundef %1, ptr noundef nonnull align 4 dereferenceable(4) %2, ptr noundef nonnull align 4 dereferenceable(4) %3, ptr noundef nonnull align 8 dereferenceable(72) %4, ptr noundef nonnull align 8 dereferenceable(72) %5, ptr noundef nonnull align 4 dereferenceable(4) %6, ptr noundef nonnull align 8 dereferenceable(8) %7, ptr noundef nonnull align 8 dereferenceable(8) %8) #19 personality ptr @__gxx_personality_v0 {
  %10 = alloca ptr, align 8
  %11 = alloca ptr, align 8
  %12 = alloca ptr, align 8
  %13 = alloca ptr, align 8
  %14 = alloca ptr, align 8
  %15 = alloca ptr, align 8
  %16 = alloca ptr, align 8
  %17 = alloca ptr, align 8
  %18 = alloca ptr, align 8
  %19 = alloca ptr, align 8
  %20 = alloca i32, align 4
  %21 = alloca i32, align 4
  %22 = alloca i32, align 4
  %23 = alloca i32, align 4
  %24 = alloca i32, align 4
  %25 = alloca i32, align 4
  %26 = alloca i32, align 4
  %27 = alloca i32, align 4
  %28 = alloca i32, align 4
  %29 = alloca i32, align 4
  %30 = alloca ptr, align 8
  %31 = alloca ptr, align 8
  %32 = alloca float, align 4
  %33 = alloca i32, align 4
  store ptr %0, ptr %10, align 8, !tbaa !17
  store ptr %1, ptr %11, align 8, !tbaa !17
  store ptr %2, ptr %12, align 8, !tbaa !17
  store ptr %3, ptr %13, align 8, !tbaa !17
  store ptr %4, ptr %14, align 8, !tbaa !4
  store ptr %5, ptr %15, align 8, !tbaa !4
  store ptr %6, ptr %16, align 8, !tbaa !17
  store ptr %7, ptr %17, align 8, !tbaa !107
  store ptr %8, ptr %18, align 8, !tbaa !107
  %34 = load ptr, ptr %12, align 8, !tbaa !17
  %35 = load ptr, ptr %13, align 8, !tbaa !17
  %36 = load ptr, ptr %14, align 8, !tbaa !4
  %37 = load ptr, ptr %15, align 8, !tbaa !4
  %38 = load ptr, ptr %16, align 8, !tbaa !17
  %39 = load ptr, ptr %17, align 8, !tbaa !107
  %40 = load ptr, ptr %18, align 8, !tbaa !107
  store ptr %36, ptr %19, align 8
  call void @llvm.lifetime.start.p0(i64 4, ptr %20) #4
  call void @llvm.lifetime.start.p0(i64 4, ptr %21) #4
  %41 = load i32, ptr %35, align 4, !tbaa !9
  store i32 %41, ptr %21, align 4, !tbaa !9
  call void @llvm.lifetime.start.p0(i64 4, ptr %22) #4
  %42 = load i32, ptr %34, align 4, !tbaa !9
  store i32 %42, ptr %22, align 4, !tbaa !9
  call void @llvm.lifetime.start.p0(i64 4, ptr %23) #4
  %43 = load i32, ptr %22, align 4, !tbaa !9
  %44 = load i32, ptr %21, align 4, !tbaa !9
  %45 = sub i32 %43, %44
  %46 = sub i32 %45, 1
  %47 = add i32 %46, 1
  %48 = udiv i32 %47, 1
  %49 = sub i32 %48, 1
  store i32 %49, ptr %23, align 4, !tbaa !9
  call void @llvm.lifetime.start.p0(i64 4, ptr %24) #4
  %50 = load i32, ptr %21, align 4, !tbaa !9
  store i32 %50, ptr %24, align 4, !tbaa !9
  call void @llvm.lifetime.end.p0(i64 4, ptr %24) #4
  %51 = load i32, ptr %21, align 4, !tbaa !9
  %52 = load i32, ptr %22, align 4, !tbaa !9
  %53 = icmp slt i32 %51, %52
  br i1 %53, label %54, label %125

54:                                               ; preds = %9
  call void @llvm.lifetime.start.p0(i64 4, ptr %25) #4
  store i32 0, ptr %25, align 4, !tbaa !9
  call void @llvm.lifetime.start.p0(i64 4, ptr %26) #4
  %55 = load i32, ptr %23, align 4, !tbaa !9
  store i32 %55, ptr %26, align 4, !tbaa !9
  call void @llvm.lifetime.start.p0(i64 4, ptr %27) #4
  store i32 1, ptr %27, align 4, !tbaa !9
  call void @llvm.lifetime.start.p0(i64 4, ptr %28) #4
  store i32 0, ptr %28, align 4, !tbaa !9
  call void @llvm.lifetime.start.p0(i64 4, ptr %29) #4
  %56 = load ptr, ptr %10, align 8
  %57 = load i32, ptr %56, align 4, !tbaa !9
  call void @__kmpc_for_static_init_4u(ptr @1, i32 %57, i32 34, ptr %28, ptr %25, ptr %26, ptr %27, i32 1, i32 1)
  %58 = load i32, ptr %26, align 4, !tbaa !9
  %59 = load i32, ptr %23, align 4, !tbaa !9
  %60 = icmp ugt i32 %58, %59
  br i1 %60, label %61, label %63

61:                                               ; preds = %54
  %62 = load i32, ptr %23, align 4, !tbaa !9
  br label %65

63:                                               ; preds = %54
  %64 = load i32, ptr %26, align 4, !tbaa !9
  br label %65

65:                                               ; preds = %63, %61
  %66 = phi i32 [ %62, %61 ], [ %64, %63 ]
  store i32 %66, ptr %26, align 4, !tbaa !9
  %67 = load i32, ptr %25, align 4, !tbaa !9
  store i32 %67, ptr %20, align 4, !tbaa !9
  br label %68

68:                                               ; preds = %118, %65
  %69 = load i32, ptr %20, align 4, !tbaa !9
  %70 = load i32, ptr %26, align 4, !tbaa !9
  %71 = add i32 %70, 1
  %72 = icmp ult i32 %69, %71
  br i1 %72, label %74, label %73

73:                                               ; preds = %68
  br label %121

74:                                               ; preds = %68
  %75 = load i32, ptr %21, align 4, !tbaa !9
  %76 = load i32, ptr %20, align 4, !tbaa !9
  %77 = mul i32 %76, 1
  %78 = add i32 %75, %77
  store i32 %78, ptr %29, align 4, !tbaa !9
  call void @llvm.lifetime.start.p0(i64 8, ptr %30) #4
  %79 = load ptr, ptr %19, align 8, !tbaa !4
  %80 = load i32, ptr %29, align 4, !tbaa !9
  %81 = call noundef ptr @_ZNK4ncnn3Mat3rowEi(ptr noundef nonnull align 8 dereferenceable(72) %79, i32 noundef %80)
  store ptr %81, ptr %30, align 8, !tbaa !19
  call void @llvm.lifetime.start.p0(i64 8, ptr %31) #4
  %82 = invoke noundef ptr @_ZN4ncnn3MatcvPT_IKfEEv(ptr noundef nonnull align 8 dereferenceable(72) %37)
          to label %83 unwind label %126

83:                                               ; preds = %74
  store ptr %82, ptr %31, align 8, !tbaa !19
  call void @llvm.lifetime.start.p0(i64 4, ptr %32) #4
  store float 0.000000e+00, ptr %32, align 4, !tbaa !21
  call void @llvm.lifetime.start.p0(i64 4, ptr %33) #4
  store i32 0, ptr %33, align 4, !tbaa !9
  br label %84

84:                                               ; preds = %103, %83
  %85 = load i32, ptr %33, align 4, !tbaa !9
  %86 = load i32, ptr %38, align 4, !tbaa !9
  %87 = icmp slt i32 %85, %86
  br i1 %87, label %89, label %88

88:                                               ; preds = %84
  call void @llvm.lifetime.end.p0(i64 4, ptr %33) #4
  br label %106

89:                                               ; preds = %84
  %90 = load ptr, ptr %31, align 8, !tbaa !19
  %91 = load i32, ptr %33, align 4, !tbaa !9
  %92 = sext i32 %91 to i64
  %93 = getelementptr inbounds float, ptr %90, i64 %92
  %94 = load float, ptr %93, align 4, !tbaa !21
  %95 = load ptr, ptr %30, align 8, !tbaa !19
  %96 = load i32, ptr %33, align 4, !tbaa !9
  %97 = sext i32 %96 to i64
  %98 = getelementptr inbounds float, ptr %95, i64 %97
  %99 = load float, ptr %98, align 4, !tbaa !21
  %100 = fmul fast float %94, %99
  %101 = load float, ptr %32, align 4, !tbaa !21
  %102 = fadd fast float %101, %100
  store float %102, ptr %32, align 4, !tbaa !21
  br label %103

103:                                              ; preds = %89
  %104 = load i32, ptr %33, align 4, !tbaa !9
  %105 = add nsw i32 %104, 1
  store i32 %105, ptr %33, align 4, !tbaa !9
  br label %84, !llvm.loop !110

106:                                              ; preds = %88
  %107 = load float, ptr %32, align 4, !tbaa !21
  %108 = load ptr, ptr %39, align 8, !tbaa !19
  %109 = load i32, ptr %29, align 4, !tbaa !9
  %110 = sext i32 %109 to i64
  %111 = getelementptr inbounds float, ptr %108, i64 %110
  store float %107, ptr %111, align 4, !tbaa !21
  %112 = load float, ptr %32, align 4, !tbaa !21
  %113 = load ptr, ptr %40, align 8, !tbaa !19
  %114 = load i32, ptr %29, align 4, !tbaa !9
  %115 = sext i32 %114 to i64
  %116 = getelementptr inbounds float, ptr %113, i64 %115
  store float %112, ptr %116, align 4, !tbaa !21
  call void @llvm.lifetime.end.p0(i64 4, ptr %32) #4
  call void @llvm.lifetime.end.p0(i64 8, ptr %31) #4
  call void @llvm.lifetime.end.p0(i64 8, ptr %30) #4
  br label %117

117:                                              ; preds = %106
  br label %118

118:                                              ; preds = %117
  %119 = load i32, ptr %20, align 4, !tbaa !9
  %120 = add i32 %119, 1
  store i32 %120, ptr %20, align 4, !tbaa !9
  br label %68

121:                                              ; preds = %73
  br label %122

122:                                              ; preds = %121
  %123 = load ptr, ptr %10, align 8
  %124 = load i32, ptr %123, align 4, !tbaa !9
  call void @__kmpc_for_static_fini(ptr @1, i32 %124)
  call void @llvm.lifetime.end.p0(i64 4, ptr %29) #4
  call void @llvm.lifetime.end.p0(i64 4, ptr %28) #4
  call void @llvm.lifetime.end.p0(i64 4, ptr %27) #4
  call void @llvm.lifetime.end.p0(i64 4, ptr %26) #4
  call void @llvm.lifetime.end.p0(i64 4, ptr %25) #4
  br label %125

125:                                              ; preds = %122, %9
  call void @llvm.lifetime.end.p0(i64 4, ptr %23) #4
  call void @llvm.lifetime.end.p0(i64 4, ptr %22) #4
  call void @llvm.lifetime.end.p0(i64 4, ptr %21) #4
  call void @llvm.lifetime.end.p0(i64 4, ptr %20) #4
  ret void

126:                                              ; preds = %74
  %127 = landingpad { ptr, i32 }
          catch ptr null
  %128 = extractvalue { ptr, i32 } %127, 0
  call void @__clang_call_terminate(ptr %128) #21
  unreachable
}